ARM GAS  C:\Users\tmj32\AppData\Local\Temp\ccip3XFL.s 			page 1


   1              		.syntax unified
   2              		.cpu cortex-m3
   3              		.fpu softvfp
   4              		.eabi_attribute 20, 1
   5              		.eabi_attribute 21, 1
   6              		.eabi_attribute 23, 3
   7              		.eabi_attribute 24, 1
   8              		.eabi_attribute 25, 1
   9              		.eabi_attribute 26, 1
  10              		.eabi_attribute 30, 1
  11              		.eabi_attribute 34, 1
  12              		.eabi_attribute 18, 4
  13              		.thumb
  14              		.syntax unified
  15              		.file	"main.c"
  16              		.text
  17              	.Ltext0:
  18              		.cfi_sections	.debug_frame
  19              		.section	.text.main,"ax",%progbits
  20              		.align	2
  21              		.global	main
  22              		.thumb
  23              		.thumb_func
  24              		.type	main, %function
  25              	main:
  26              	.LFB64:
  27              		.file 1 "main.c"
   1:main.c        **** #include "project.h"
   2:main.c        **** #include "stdio.h"
   3:main.c        **** int main(void)
   4:main.c        **** {
  28              		.loc 1 4 0
  29              		.cfi_startproc
  30              		@ args = 0, pretend = 0, frame = 16
  31              		@ frame_needed = 0, uses_anonymous_args = 0
  32 0000 70B5     		push	{r4, r5, r6, lr}
  33              		.cfi_def_cfa_offset 16
  34              		.cfi_offset 4, -16
  35              		.cfi_offset 5, -12
  36              		.cfi_offset 6, -8
  37              		.cfi_offset 14, -4
  38 0002 84B0     		sub	sp, sp, #16
  39              		.cfi_def_cfa_offset 32
   5:main.c        ****     CyGlobalIntEnable; /* Enable global interrupts. */
  40              		.loc 1 5 0
  41              		.syntax unified
  42              	@ 5 "main.c" 1
  43 0004 62B6     		CPSIE   i
  44              	@ 0 "" 2
   6:main.c        ****     
   7:main.c        ****     LCD_Start();
  45              		.loc 1 7 0
  46              		.thumb
  47              		.syntax unified
  48 0006 FFF7FEFF 		bl	LCD_Start
  49              	.LVL0:
   8:main.c        ****     Driver_Start();     //the tens place of minutes
ARM GAS  C:\Users\tmj32\AppData\Local\Temp\ccip3XFL.s 			page 2


  50              		.loc 1 8 0
  51 000a FFF7FEFF 		bl	Driver_Start
  52              	.LVL1:
   9:main.c        ****     Driver1_Start();    //the ones place of minutes
  53              		.loc 1 9 0
  54 000e FFF7FEFF 		bl	Driver1_Start
  55              	.LVL2:
  10:main.c        ****     //Driver2_Start();    //the tens place of seconds
  11:main.c        ****     //Driver3_Start();    //the ones place of seconds
  12:main.c        ****     LCD_Position(0,0);
  56              		.loc 1 12 0
  57 0012 0021     		movs	r1, #0
  58 0014 0846     		mov	r0, r1
  59 0016 FFF7FEFF 		bl	LCD_Position
  60              	.LVL3:
  13:main.c        ****     LCD_PrintString("Welcome!");
  61              		.loc 1 13 0
  62 001a 6148     		ldr	r0, .L12
  63 001c FFF7FEFF 		bl	LCD_PrintString
  64              	.LVL4:
  14:main.c        ****     CyDelay(1000);
  65              		.loc 1 14 0
  66 0020 4FF47A70 		mov	r0, #1000
  67 0024 FFF7FEFF 		bl	CyDelay
  68              	.LVL5:
  15:main.c        ****     
  16:main.c        ****     int minutes = 0;
  17:main.c        ****     int seconds = 0;
  18:main.c        ****     char str1[15];
  19:main.c        ****     
  20:main.c        ****     LCD_ClearDisplay();
  69              		.loc 1 20 0
  70 0028 0120     		movs	r0, #1
  71 002a FFF7FEFF 		bl	LCD_WriteControl
  72              	.LVL6:
  21:main.c        ****     LCD_Position(0,0);
  73              		.loc 1 21 0
  74 002e 0021     		movs	r1, #0
  75 0030 0846     		mov	r0, r1
  76 0032 FFF7FEFF 		bl	LCD_Position
  77              	.LVL7:
  22:main.c        ****     sprintf(str1, "%d:%d", minutes, seconds);
  78              		.loc 1 22 0
  79 0036 0023     		movs	r3, #0
  80 0038 1A46     		mov	r2, r3
  81 003a 5A49     		ldr	r1, .L12+4
  82 003c 6846     		mov	r0, sp
  83 003e FFF7FEFF 		bl	sprintf
  84              	.LVL8:
  23:main.c        ****     LCD_PrintString(str1);
  85              		.loc 1 23 0
  86 0042 6846     		mov	r0, sp
  87 0044 FFF7FEFF 		bl	LCD_PrintString
  88              	.LVL9:
  24:main.c        ****     
  25:main.c        ****     //setting the inital display to show all zeros
  26:main.c        ****     Driver_Write7SegDigitDec(0, 0);
ARM GAS  C:\Users\tmj32\AppData\Local\Temp\ccip3XFL.s 			page 3


  89              		.loc 1 26 0
  90 0048 0021     		movs	r1, #0
  91 004a 0846     		mov	r0, r1
  92 004c FFF7FEFF 		bl	Driver_Write7SegDigitDec
  93              	.LVL10:
  27:main.c        ****     Driver1_Write7SegDigitDec(0, 0);
  94              		.loc 1 27 0
  95 0050 0021     		movs	r1, #0
  96 0052 0846     		mov	r0, r1
  97 0054 FFF7FEFF 		bl	Driver1_Write7SegDigitDec
  98              	.LVL11:
  17:main.c        ****     char str1[15];
  99              		.loc 1 17 0
 100 0058 0024     		movs	r4, #0
  16:main.c        ****     int seconds = 0;
 101              		.loc 1 16 0
 102 005a 2546     		mov	r5, r4
 103              	.LVL12:
 104              	.L2:
  28:main.c        ****     //Driver2_Write7SegDigitDec(0, 0);
  29:main.c        ****     //Driver3_Write7SegDigitDec(0, 0);
  30:main.c        **** 
  31:main.c        ****     for(;;)
  32:main.c        ****     {
  33:main.c        ****         //Driver_Write7SegDigitDec(9, 0);
  34:main.c        ****         //Driver1_Write7SegDigitDec(7, 0);
  35:main.c        ****         //increment minutes by 1 when button one is pressed
  36:main.c        ****         if (SW_Read() == 0)
 105              		.loc 1 36 0
 106 005c FFF7FEFF 		bl	SW_Read
 107              	.LVL13:
 108 0060 98B9     		cbnz	r0, .L3
  37:main.c        ****         {
  38:main.c        ****             CyDelay(100);
 109              		.loc 1 38 0
 110 0062 6420     		movs	r0, #100
 111 0064 FFF7FEFF 		bl	CyDelay
 112              	.LVL14:
  39:main.c        ****             //while(SW_Read() != 1)   //while loop to remove bounce
  40:main.c        ****             //{
  41:main.c        ****                 LCD_ClearDisplay();
 113              		.loc 1 41 0
 114 0068 0120     		movs	r0, #1
 115 006a FFF7FEFF 		bl	LCD_WriteControl
 116              	.LVL15:
  42:main.c        ****                 LCD_Position(0,0);
 117              		.loc 1 42 0
 118 006e 0021     		movs	r1, #0
 119 0070 0846     		mov	r0, r1
 120 0072 FFF7FEFF 		bl	LCD_Position
 121              	.LVL16:
  43:main.c        ****              
  44:main.c        ****                 minutes = minutes + 1;
 122              		.loc 1 44 0
 123 0076 0135     		adds	r5, r5, #1
 124              	.LVL17:
  45:main.c        ****                 sprintf(str1, "%d:%d", minutes, seconds);
ARM GAS  C:\Users\tmj32\AppData\Local\Temp\ccip3XFL.s 			page 4


 125              		.loc 1 45 0
 126 0078 2346     		mov	r3, r4
 127 007a 2A46     		mov	r2, r5
 128 007c 4949     		ldr	r1, .L12+4
 129 007e 6846     		mov	r0, sp
 130 0080 FFF7FEFF 		bl	sprintf
 131              	.LVL18:
  46:main.c        ****                 LCD_PrintString(str1);
 132              		.loc 1 46 0
 133 0084 6846     		mov	r0, sp
 134 0086 FFF7FEFF 		bl	LCD_PrintString
 135              	.LVL19:
 136              	.L3:
  47:main.c        ****                 
  48:main.c        ****                 //if (minutes < 10)
  49:main.c        ****                 //{
  50:main.c        ****                     //Driver_Write7SegDigitDec(0, 0);
  51:main.c        ****                     //Driver1_Write7SegDigitDec(minutes, 0);
  52:main.c        ****                 //}
  53:main.c        ****                 //else //when double digits
  54:main.c        ****                 //{
  55:main.c        ****                     //Driver_Write7SegDigitDec((minutes / 10), 0); //shift out the ones place to be
  56:main.c        ****                     //Driver1_Write7SegDigitDec((minutes % 10), 0); //modulo by 10 to be left with 
  57:main.c        ****                 //}    
  58:main.c        ****             //}
  59:main.c        ****         }
  60:main.c        **** 
  61:main.c        ****         //increment seconds by 1 when button two is pressed
  62:main.c        ****         if (SW2_Read() == 0)
 137              		.loc 1 62 0
 138 008a FFF7FEFF 		bl	SW2_Read
 139              	.LVL20:
 140 008e A0BB     		cbnz	r0, .L4
  63:main.c        ****         {
  64:main.c        ****             CyDelay(100);
 141              		.loc 1 64 0
 142 0090 6420     		movs	r0, #100
 143 0092 FFF7FEFF 		bl	CyDelay
 144              	.LVL21:
  65:main.c        ****             //while(SW2_Read() != 1)  //while loop to remove bounce
  66:main.c        ****             //{
  67:main.c        ****                 LCD_ClearDisplay();
 145              		.loc 1 67 0
 146 0096 0120     		movs	r0, #1
 147 0098 FFF7FEFF 		bl	LCD_WriteControl
 148              	.LVL22:
  68:main.c        ****                 LCD_Position(0,0);
 149              		.loc 1 68 0
 150 009c 0021     		movs	r1, #0
 151 009e 0846     		mov	r0, r1
 152 00a0 FFF7FEFF 		bl	LCD_Position
 153              	.LVL23:
  69:main.c        **** 
  70:main.c        ****                 if (seconds >= 60)
 154              		.loc 1 70 0
 155 00a4 3B2C     		cmp	r4, #59
 156 00a6 01DD     		ble	.L5
ARM GAS  C:\Users\tmj32\AppData\Local\Temp\ccip3XFL.s 			page 5


 157              	.LVL24:
  71:main.c        ****                 {
  72:main.c        ****                     seconds = 0;
  73:main.c        ****                     minutes = minutes + 1;
 158              		.loc 1 73 0
 159 00a8 0135     		adds	r5, r5, #1
 160              	.LVL25:
  72:main.c        ****                     minutes = minutes + 1;
 161              		.loc 1 72 0
 162 00aa 0024     		movs	r4, #0
 163              	.LVL26:
 164              	.L5:
  74:main.c        ****                 }   
  75:main.c        **** 
  76:main.c        ****                 seconds = seconds + 1;
 165              		.loc 1 76 0
 166 00ac 0134     		adds	r4, r4, #1
 167              	.LVL27:
  77:main.c        ****                 sprintf(str1, "%d:%d", minutes, seconds);
 168              		.loc 1 77 0
 169 00ae 2346     		mov	r3, r4
 170 00b0 2A46     		mov	r2, r5
 171 00b2 3C49     		ldr	r1, .L12+4
 172 00b4 6846     		mov	r0, sp
 173 00b6 FFF7FEFF 		bl	sprintf
 174              	.LVL28:
  78:main.c        ****                 LCD_PrintString(str1);
 175              		.loc 1 78 0
 176 00ba 6846     		mov	r0, sp
 177 00bc FFF7FEFF 		bl	LCD_PrintString
 178              	.LVL29:
  79:main.c        ****                 
  80:main.c        ****                 if (seconds < 10)
 179              		.loc 1 80 0
 180 00c0 092C     		cmp	r4, #9
 181 00c2 08DC     		bgt	.L6
  81:main.c        ****                 {
  82:main.c        ****                     Driver_Write7SegDigitDec(0, 0);
 182              		.loc 1 82 0
 183 00c4 0021     		movs	r1, #0
 184 00c6 0846     		mov	r0, r1
 185 00c8 FFF7FEFF 		bl	Driver_Write7SegDigitDec
 186              	.LVL30:
  83:main.c        ****                     Driver1_Write7SegDigitDec(seconds, 0);
 187              		.loc 1 83 0
 188 00cc 0021     		movs	r1, #0
 189 00ce E0B2     		uxtb	r0, r4
 190 00d0 FFF7FEFF 		bl	Driver1_Write7SegDigitDec
 191              	.LVL31:
 192 00d4 11E0     		b	.L4
 193              	.L6:
  84:main.c        ****                 }
  85:main.c        ****                 else //when double digits
  86:main.c        ****                 {            
  87:main.c        ****                     Driver_Write7SegDigitDec((seconds / 10), 0); //shift out the ones place to be l
 194              		.loc 1 87 0
 195 00d6 344E     		ldr	r6, .L12+8
ARM GAS  C:\Users\tmj32\AppData\Local\Temp\ccip3XFL.s 			page 6


 196 00d8 86FB0436 		smull	r3, r6, r6, r4
 197 00dc E317     		asrs	r3, r4, #31
 198 00de C3EBA606 		rsb	r6, r3, r6, asr #2
 199 00e2 0021     		movs	r1, #0
 200 00e4 F0B2     		uxtb	r0, r6
 201 00e6 FFF7FEFF 		bl	Driver_Write7SegDigitDec
 202              	.LVL32:
  88:main.c        ****                     Driver1_Write7SegDigitDec((seconds % 10), 0); //modulo by 10 to be left with th
 203              		.loc 1 88 0
 204 00ea 06EB8606 		add	r6, r6, r6, lsl #2
 205 00ee 7000     		lsls	r0, r6, #1
 206 00f0 201A     		subs	r0, r4, r0
 207 00f2 0021     		movs	r1, #0
 208 00f4 C0B2     		uxtb	r0, r0
 209 00f6 FFF7FEFF 		bl	Driver1_Write7SegDigitDec
 210              	.LVL33:
 211              	.L4:
  89:main.c        ****                 }      
  90:main.c        ****             //}
  91:main.c        ****         }
  92:main.c        ****         
  93:main.c        ****         CyDelay(50);
 212              		.loc 1 93 0
 213 00fa 3220     		movs	r0, #50
 214 00fc FFF7FEFF 		bl	CyDelay
 215              	.LVL34:
  94:main.c        ****         
  95:main.c        ****         //this is the count down section of the code
  96:main.c        ****         if ((SW_Read() != 0) && (SW2_Read() != 0) && ((seconds > 0) || (minutes > 0)))
 216              		.loc 1 96 0
 217 0100 FFF7FEFF 		bl	SW_Read
 218              	.LVL35:
 219 0104 0028     		cmp	r0, #0
 220 0106 A9D0     		beq	.L2
 221              		.loc 1 96 0 is_stmt 0 discriminator 1
 222 0108 FFF7FEFF 		bl	SW2_Read
 223              	.LVL36:
 224 010c 0028     		cmp	r0, #0
 225 010e A5D0     		beq	.L2
 226              		.loc 1 96 0 discriminator 2
 227 0110 002C     		cmp	r4, #0
 228 0112 01DC     		bgt	.L8
 229              		.loc 1 96 0 discriminator 3
 230 0114 002D     		cmp	r5, #0
 231 0116 A1DD     		ble	.L2
 232              	.L8:
  97:main.c        ****         {
  98:main.c        ****             //begin countdown
  99:main.c        ****             CyDelay(1000);
 233              		.loc 1 99 0 is_stmt 1
 234 0118 4FF47A70 		mov	r0, #1000
 235 011c FFF7FEFF 		bl	CyDelay
 236              	.LVL37:
 100:main.c        ****             //this decrements the minutes every 60 seconds
 101:main.c        ****             if (seconds == 0)
 237              		.loc 1 101 0
 238 0120 84B9     		cbnz	r4, .L9
ARM GAS  C:\Users\tmj32\AppData\Local\Temp\ccip3XFL.s 			page 7


 102:main.c        ****             {
 103:main.c        ****                 if (minutes > 0)
 239              		.loc 1 103 0
 240 0122 002D     		cmp	r5, #0
 241 0124 9ADD     		ble	.L2
 104:main.c        ****                 {
 105:main.c        ****                     minutes = minutes - 1;
 242              		.loc 1 105 0
 243 0126 013D     		subs	r5, r5, #1
 244              	.LVL38:
 106:main.c        ****                     seconds = 59;
 107:main.c        ****                     LCD_ClearDisplay();
 245              		.loc 1 107 0
 246 0128 0120     		movs	r0, #1
 247 012a FFF7FEFF 		bl	LCD_WriteControl
 248              	.LVL39:
 108:main.c        ****                     sprintf(str1, "%d:%d", minutes, seconds);
 249              		.loc 1 108 0
 250 012e 3B23     		movs	r3, #59
 251 0130 2A46     		mov	r2, r5
 252 0132 1C49     		ldr	r1, .L12+4
 253 0134 6846     		mov	r0, sp
 254 0136 FFF7FEFF 		bl	sprintf
 255              	.LVL40:
 109:main.c        ****                     LCD_PrintString(str1);
 256              		.loc 1 109 0
 257 013a 6846     		mov	r0, sp
 258 013c FFF7FEFF 		bl	LCD_PrintString
 259              	.LVL41:
 106:main.c        ****                     seconds = 59;
 260              		.loc 1 106 0
 261 0140 3B24     		movs	r4, #59
 262 0142 8BE7     		b	.L2
 263              	.LVL42:
 264              	.L9:
 110:main.c        ****                     
 111:main.c        ****                     //if (minutes < 10)
 112:main.c        ****                     //{
 113:main.c        ****                         //Driver_Write7SegDigitDec(0, 0);
 114:main.c        ****                         //Driver1_Write7SegDigitDec(minutes, 0);
 115:main.c        ****                     //}
 116:main.c        ****                     //else //when double digits
 117:main.c        ****                     //{
 118:main.c        ****                         //Driver_Write7SegDigitDec((minutes >> 1), 0); //shift out the ones place t
 119:main.c        ****                         //Driver1_Write7SegDigitDec((minutes % 10), 0); //modulo by 10 to be left w
 120:main.c        ****                     //}   
 121:main.c        ****                 }
 122:main.c        ****             }
 123:main.c        ****             
 124:main.c        ****             //this decrements the seconds every second
 125:main.c        ****             else
 126:main.c        ****             {
 127:main.c        ****                 if (seconds > 0)
 265              		.loc 1 127 0
 266 0144 002C     		cmp	r4, #0
 267 0146 89DD     		ble	.L2
 128:main.c        ****                 {
ARM GAS  C:\Users\tmj32\AppData\Local\Temp\ccip3XFL.s 			page 8


 129:main.c        ****                     seconds = seconds - 1;
 268              		.loc 1 129 0
 269 0148 013C     		subs	r4, r4, #1
 270              	.LVL43:
 130:main.c        ****                     LCD_ClearDisplay();
 271              		.loc 1 130 0
 272 014a 0120     		movs	r0, #1
 273 014c FFF7FEFF 		bl	LCD_WriteControl
 274              	.LVL44:
 131:main.c        ****                     sprintf(str1, "%d:%d", minutes, seconds);
 275              		.loc 1 131 0
 276 0150 2346     		mov	r3, r4
 277 0152 2A46     		mov	r2, r5
 278 0154 1349     		ldr	r1, .L12+4
 279 0156 6846     		mov	r0, sp
 280 0158 FFF7FEFF 		bl	sprintf
 281              	.LVL45:
 132:main.c        ****                     LCD_PrintString(str1);
 282              		.loc 1 132 0
 283 015c 6846     		mov	r0, sp
 284 015e FFF7FEFF 		bl	LCD_PrintString
 285              	.LVL46:
 133:main.c        ****                     
 134:main.c        ****                     if (seconds < 10)
 286              		.loc 1 134 0
 287 0162 092C     		cmp	r4, #9
 288 0164 08DC     		bgt	.L10
 135:main.c        ****                     {
 136:main.c        ****                         Driver_Write7SegDigitDec(0, 0);
 289              		.loc 1 136 0
 290 0166 0021     		movs	r1, #0
 291 0168 0846     		mov	r0, r1
 292 016a FFF7FEFF 		bl	Driver_Write7SegDigitDec
 293              	.LVL47:
 137:main.c        ****                         Driver1_Write7SegDigitDec(seconds, 0);
 294              		.loc 1 137 0
 295 016e 0021     		movs	r1, #0
 296 0170 E0B2     		uxtb	r0, r4
 297 0172 FFF7FEFF 		bl	Driver1_Write7SegDigitDec
 298              	.LVL48:
 299 0176 71E7     		b	.L2
 300              	.L10:
 138:main.c        ****                     }
 139:main.c        ****                     else //when double digits
 140:main.c        ****                     {            
 141:main.c        ****                         Driver_Write7SegDigitDec((seconds / 10), 0); //shift out the ones place to 
 301              		.loc 1 141 0
 302 0178 0B4E     		ldr	r6, .L12+8
 303 017a 86FB0436 		smull	r3, r6, r6, r4
 304 017e E317     		asrs	r3, r4, #31
 305 0180 C3EBA606 		rsb	r6, r3, r6, asr #2
 306 0184 0021     		movs	r1, #0
 307 0186 F0B2     		uxtb	r0, r6
 308 0188 FFF7FEFF 		bl	Driver_Write7SegDigitDec
 309              	.LVL49:
 142:main.c        ****                         Driver1_Write7SegDigitDec((seconds % 10), 0); //modulo by 10 to be left wit
 310              		.loc 1 142 0
ARM GAS  C:\Users\tmj32\AppData\Local\Temp\ccip3XFL.s 			page 9


 311 018c 06EB8606 		add	r6, r6, r6, lsl #2
 312 0190 7000     		lsls	r0, r6, #1
 313 0192 201A     		subs	r0, r4, r0
 314 0194 0021     		movs	r1, #0
 315 0196 C0B2     		uxtb	r0, r0
 316 0198 FFF7FEFF 		bl	Driver1_Write7SegDigitDec
 317              	.LVL50:
 318 019c 5EE7     		b	.L2
 319              	.L13:
 320 019e 00BF     		.align	2
 321              	.L12:
 322 01a0 00000000 		.word	.LC0
 323 01a4 0C000000 		.word	.LC1
 324 01a8 67666666 		.word	1717986919
 325              		.cfi_endproc
 326              	.LFE64:
 327              		.size	main, .-main
 328              		.section	.rodata.str1.4,"aMS",%progbits,1
 329              		.align	2
 330              	.LC0:
 331 0000 57656C63 		.ascii	"Welcome!\000"
 331      6F6D6521 
 331      00
 332 0009 000000   		.space	3
 333              	.LC1:
 334 000c 25643A25 		.ascii	"%d:%d\000"
 334      6400
 335              		.text
 336              	.Letext0:
 337              		.file 2 "c:\\program files (x86)\\cypress\\psoc creator\\4.2\\psoc creator\\import\\gnu\\arm\\5.4.
 338              		.file 3 "c:\\program files (x86)\\cypress\\psoc creator\\4.2\\psoc creator\\import\\gnu\\arm\\5.4.
 339              		.file 4 "Generated_Source\\PSoC5/LCD.h"
 340              		.file 5 "Generated_Source\\PSoC5/Driver.h"
 341              		.file 6 "Generated_Source\\PSoC5/Driver1.h"
 342              		.file 7 "Generated_Source\\PSoC5/CyLib.h"
 343              		.file 8 "c:\\program files (x86)\\cypress\\psoc creator\\4.2\\psoc creator\\import\\gnu\\arm\\5.4.
 344              		.file 9 "Generated_Source\\PSoC5/SW.h"
 345              		.file 10 "Generated_Source\\PSoC5/SW2.h"
 346              		.file 11 "Generated_Source\\PSoC5/core_cm3.h"